; Function Attrs: mustprogress uwtable
define void @_ZN7testing8internal15ExpectationBase22RetireAllPreRequisitesEv(ptr noundef nonnull readonly align 8 dereferenceable(232) %this) local_unnamed_addr #3 align 2 {
entry:
  tail call void @_ZNK7testing8internal9MutexBase10AssertHeldEv(ptr noundef nonnull align 8 dereferenceable(56) @_ZN7testing8internal13g_gmock_mutexE)
  %retired_.i = getelementptr inbounds i8, ptr %this, i64 132
  %0 = load i8, ptr %retired_.i, align 4
  %1 = and i8 %0, 1
  %tobool.i.not = icmp eq i8 %1, 0
  br i1 %tobool.i.not, label %if.end, label %for.end

if.end:                                           ; preds = %entry
  %_M_left.i.i.i = getelementptr inbounds i8, ptr %this, i64 104
  %2 = load ptr, ptr %_M_left.i.i.i, align 8
  %add.ptr.i.i.i = getelementptr inbounds i8, ptr %this, i64 88
  %cmp.i.not8 = icmp eq ptr %2, %add.ptr.i.i.i
  br i1 %cmp.i.not8, label %for.end, label %for.body

for.body:                                         ; preds = %if.end, %for.inc
  %it.sroa.0.09 = phi ptr [ %call.i, %for.inc ], [ %2, %if.end ]
  %_M_storage.i.i = getelementptr inbounds i8, ptr %it.sroa.0.09, i64 32
  %3 = load ptr, ptr %_M_storage.i.i, align 8
  tail call void @_ZNK7testing8internal9MutexBase10AssertHeldEv(ptr noundef nonnull align 8 dereferenceable(56) @_ZN7testing8internal13g_gmock_mutexE)
  %retired_.i3 = getelementptr inbounds i8, ptr %3, i64 132
  %4 = load i8, ptr %retired_.i3, align 4
  %5 = and i8 %4, 1
  %tobool.i4.not = icmp eq i8 %5, 0
  br i1 %tobool.i4.not, label %if.then11, label %for.inc

if.then11:                                        ; preds = %for.body
  tail call void @_ZN7testing8internal15ExpectationBase22RetireAllPreRequisitesEv(ptr noundef nonnull align 8 dereferenceable(232) %3)
  tail call void @_ZNK7testing8internal9MutexBase10AssertHeldEv(ptr noundef nonnull align 8 dereferenceable(56) @_ZN7testing8internal13g_gmock_mutexE)
  store i8 1, ptr %retired_.i3, align 4
  br label %for.inc

for.inc:                                          ; preds = %for.body, %if.then11
  %call.i = tail call noundef ptr @_ZSt18_Rb_tree_incrementPKSt18_Rb_tree_node_base(ptr noundef nonnull %it.sroa.0.09) #29
  %cmp.i.not = icmp eq ptr %call.i, %add.ptr.i.i.i
  br i1 %cmp.i.not, label %for.end, label %for.body, !llvm.loop !62

for.end:                                          ; preds = %for.inc, %if.end, %entry
  ret void
}